target datalayout = "e-m:e-p270:32:32-p271:32:32-p272:64:64-i64:64-i128:128-f80:128-n8:16:32:64-S128"
target triple = "x86_64-unknown-linux-gnu"

%"class.sat::literal" = type { i32 }

; Function Attrs: mustprogress uwtable
define hidden void @_ZN3smt7context14mk_root_clauseEN3sat7literalES2_S2_P3app(ptr noundef nonnull align 8 dereferenceable(11616) %this, i32 %l1.coerce, i32 %l2.coerce, i32 %l3.coerce, ptr noundef %pr) #5 align 2 {
entry:
  %l1 = alloca %"class.sat::literal", align 4
  %l2 = alloca %"class.sat::literal", align 4
  %l3 = alloca %"class.sat::literal", align 4
  %this.addr = alloca ptr, align 8
  %pr.addr = alloca ptr, align 8
  %ls = alloca [3 x %"class.sat::literal"], align 4
  %coerce.dive = getelementptr inbounds %"class.sat::literal", ptr %l1, i32 0, i32 0
  store i32 %l1.coerce, ptr %coerce.dive, align 4
  %coerce.dive1 = getelementptr inbounds %"class.sat::literal", ptr %l2, i32 0, i32 0
  store i32 %l2.coerce, ptr %coerce.dive1, align 4
  %coerce.dive2 = getelementptr inbounds %"class.sat::literal", ptr %l3, i32 0, i32 0
  store i32 %l3.coerce, ptr %coerce.dive2, align 4
  store ptr %this, ptr %this.addr, align 8
  store ptr %pr, ptr %pr.addr, align 8
  %this3 = load ptr, ptr %this.addr, align 8
  %arrayinit.begin = getelementptr inbounds [3 x %"class.sat::literal"], ptr %ls, i64 0, i64 0
  call void @llvm.memcpy.p0.p0.i64(ptr align 4 %arrayinit.begin, ptr align 4 %l1, i64 4, i1 false)
  %arrayinit.element = getelementptr inbounds %"class.sat::literal", ptr %arrayinit.begin, i64 1
  call void @llvm.memcpy.p0.p0.i64(ptr align 4 %arrayinit.element, ptr align 4 %l2, i64 4, i1 false)
  %arrayinit.element4 = getelementptr inbounds %"class.sat::literal", ptr %arrayinit.element, i64 1
  call void @llvm.memcpy.p0.p0.i64(ptr align 4 %arrayinit.element4, ptr align 4 %l3, i64 4, i1 false)
  %arraydecay = getelementptr inbounds [3 x %"class.sat::literal"], ptr %ls, i64 0, i64 0
  %0 = load ptr, ptr %pr.addr, align 8
  call void @_ZN3smt7context14mk_root_clauseEjPN3sat7literalEP3app(ptr noundef nonnull align 8 dereferenceable(11616) %this3, i32 noundef 3, ptr noundef %arraydecay, ptr noundef %0)
  ret void
}