; Function Attrs: mustprogress uwtable
define hidden void @_ZN3smt7context14mk_root_clauseEN3sat7literalES2_S2_P3app(ptr noundef nonnull align 8 dereferenceable(11616) %this, i32 %l1.coerce, i32 %l2.coerce, i32 %l3.coerce, ptr noundef %pr) local_unnamed_addr #3 align 2 {
entry:
  %ls = alloca [3 x %"class.sat::literal"], align 4
  store i32 %l1.coerce, ptr %ls, align 4
  %arrayinit.element = getelementptr inbounds i8, ptr %ls, i64 4
  store i32 %l2.coerce, ptr %arrayinit.element, align 4
  %arrayinit.element4 = getelementptr inbounds i8, ptr %ls, i64 8
  store i32 %l3.coerce, ptr %arrayinit.element4, align 4
  call void @_ZN3smt7context14mk_root_clauseEjPN3sat7literalEP3app(ptr noundef nonnull align 8 dereferenceable(11616) %this, i32 noundef 3, ptr noundef nonnull %ls, ptr noundef %pr)
  ret void
}